target datalayout = "e-m:e-p270:32:32-p271:32:32-p272:64:64-i64:64-i128:128-f80:128-n8:16:32:64-S128"
target triple = "x86_64-pc-linux-gnu"

%struct.AVChannelLayout = type { i32, i32, %union.anon.1, ptr }
%union.anon.1 = type { i64 }
%struct.AVCodecContext = type { ptr, i32, i32, ptr, i32, i32, ptr, ptr, ptr, i64, i32, i32, ptr, i32, %struct.AVRational, %struct.AVRational, %struct.AVRational, i32, i32, i32, i32, i32, %struct.AVRational, i32, i32, i32, i32, i32, i32, i32, i32, i32, i32, i32, ptr, ptr, i32, float, float, float, float, float, float, float, float, float, i32, i32, i32, i32, i32, i32, i32, i32, i32, i32, i32, i32, ptr, ptr, ptr, i32, i32, i32, i32, i32, i32, i32, i32, i32, i32, %struct.AVChannelLayout, i32, i32, i32, i32, i32, i32, i32, i32, ptr, i32, i32, i32, float, float, i32, i32, i32, i32, i32, ptr, i64, i64, float, float, i32, i32, ptr, ptr, i32, i32, i32, i32, i32, ptr, ptr, ptr, ptr, i32, i32, [8 x i64], i32, i32, i32, i32, i32, i32, i32, ptr, ptr, i32, i32, i32, i32, i32, i32, i32, i32, i32, i32, ptr, ptr, i32, i32, ptr, ptr, ptr, ptr, i32, i32, i64, i32, i32, i64, ptr, i64, ptr, i32, ptr, i32 }
%struct.AVRational = type { i32, i32 }
%struct.MLPDecodeContext = type { ptr, ptr, %struct.AVChannelLayout, i32, i32, i8, i8, i8, i8, i8, i8, i32, i32, [4 x %struct.SubStream], i32, [8 x [2 x i32]], [256 x i8], [160 x [8 x i8]], [12 x i8], [160 x [8 x i32]], %struct.MLPDSPContext, ptr }
%struct.SubStream = type { i8, i8, i16, i8, i8, i64, i8, [8 x i8], i64, i32, i32, [8 x %struct.ChannelParams], i8, i32, i8, i8, i8, [8 x i8], [8 x i8], [5 x i8], [8 x [8 x i32]], [8 x i8], [8 x i8], i16, i16, [8 x i8], i32 }
%struct.ChannelParams = type { [2 x %struct.FilterParams], [2 x [8 x i32]], i16, i32, i8, i8 }
%struct.FilterParams = type { i8, i8, [8 x i32], i32, i32 }
%struct.MLPDSPContext = type { ptr, ptr, ptr }

; Function Attrs: nounwind uwtable
define internal void @mlp_decode_flush(ptr noundef %0) #1 {
  %2 = alloca ptr, align 8
  %3 = alloca ptr, align 8
  %4 = alloca i32, align 4
  %5 = alloca ptr, align 8
  store ptr %0, ptr %2, align 8, !tbaa !4
  call void @llvm.lifetime.start.p0(i64 8, ptr %3) #10
  %6 = load ptr, ptr %2, align 8, !tbaa !4
  %7 = getelementptr inbounds nuw %struct.AVCodecContext, ptr %6, i32 0, i32 6
  %8 = load ptr, ptr %7, align 8, !tbaa !9
  store ptr %8, ptr %3, align 8, !tbaa !29
  %9 = load ptr, ptr %3, align 8, !tbaa !29
  %10 = getelementptr inbounds nuw %struct.MLPDecodeContext, ptr %9, i32 0, i32 5
  store i8 0, ptr %10, align 16, !tbaa !63
  call void @llvm.lifetime.start.p0(i64 4, ptr %4) #10
  store i32 0, ptr %4, align 4, !tbaa !34
  br label %11

11:                                               ; preds = %29, %1
  %12 = load i32, ptr %4, align 4, !tbaa !34
  %13 = load ptr, ptr %3, align 8, !tbaa !29
  %14 = getelementptr inbounds nuw %struct.MLPDecodeContext, ptr %13, i32 0, i32 9
  %15 = load i8, ptr %14, align 4, !tbaa !66
  %16 = zext i8 %15 to i32
  %17 = icmp sle i32 %12, %16
  br i1 %17, label %19, label %18

18:                                               ; preds = %11
  call void @llvm.lifetime.end.p0(i64 4, ptr %4) #10
  br label %32

19:                                               ; preds = %11
  call void @llvm.lifetime.start.p0(i64 8, ptr %5) #10
  %20 = load ptr, ptr %3, align 8, !tbaa !29
  %21 = getelementptr inbounds nuw %struct.MLPDecodeContext, ptr %20, i32 0, i32 13
  %22 = load i32, ptr %4, align 4, !tbaa !34
  %23 = sext i32 %22 to i64
  %24 = getelementptr inbounds [4 x %struct.SubStream], ptr %21, i64 0, i64 %23
  store ptr %24, ptr %5, align 8, !tbaa !69
  %25 = load ptr, ptr %5, align 8, !tbaa !69
  %26 = getelementptr inbounds nuw %struct.SubStream, ptr %25, i32 0, i32 26
  store i32 -1, ptr %26, align 4, !tbaa !35
  %27 = load ptr, ptr %5, align 8, !tbaa !69
  %28 = getelementptr inbounds nuw %struct.SubStream, ptr %27, i32 0, i32 10
  store i32 0, ptr %28, align 4, !tbaa !83
  call void @llvm.lifetime.end.p0(i64 8, ptr %5) #10
  br label %29

29:                                               ; preds = %19
  %30 = load i32, ptr %4, align 4, !tbaa !34
  %31 = add nsw i32 %30, 1
  store i32 %31, ptr %4, align 4, !tbaa !34
  br label %11, !llvm.loop !84

32:                                               ; preds = %18
  call void @llvm.lifetime.end.p0(i64 8, ptr %3) #10
  ret void
}