; Function Attrs: nofree norecurse nosync nounwind memory(readwrite, inaccessiblemem: none) uwtable
define internal void @mlp_decode_flush(ptr noundef readonly captures(none) %0) #2 {
  %2 = getelementptr inbounds nuw i8, ptr %0, i64 32
  %3 = load ptr, ptr %2, align 8, !tbaa !4
  %4 = getelementptr inbounds nuw i8, ptr %3, i64 48
  store i8 0, ptr %4, align 16, !tbaa !79
  %5 = getelementptr inbounds nuw i8, ptr %3, i64 52
  %6 = load i8, ptr %5, align 4, !tbaa !71
  %7 = zext i8 %6 to i64
  %8 = getelementptr inbounds nuw i8, ptr %3, i64 64
  br label %10

9:                                                ; preds = %10
  ret void

10:                                               ; preds = %1, %10
  %indvars.iv = phi i64 [ 0, %1 ], [ %indvars.iv.next, %10 ]
  %11 = getelementptr inbounds nuw [4 x %struct.SubStream], ptr %8, i64 0, i64 %indvars.iv
  %12 = getelementptr inbounds nuw i8, ptr %11, i64 1676
  store i32 -1, ptr %12, align 4, !tbaa !31
  %13 = getelementptr inbounds nuw i8, ptr %11, i64 44
  store i32 0, ptr %13, align 4, !tbaa !142
  %indvars.iv.next = add nuw nsw i64 %indvars.iv, 1
  %exitcond.not = icmp eq i64 %indvars.iv, %7
  br i1 %exitcond.not, label %9, label %10, !llvm.loop !143
}